c__builtin__
set
p0
((lp1
L33292291L
aL46940166L
aL25640971L
aL88070829L
aL20809048L
aL95846418L
aL16384020L
aL4472853L
aL16195606L
aL47259373L
aL19030043L
aL52477981L
aL14180382L
aL52445217L
aL11683163L
aL22233124L
aL89058003L
aL58589228L
aL33955885L
aL17047600L
aL712761L
aL72073278L
aL4215583L
aL38379585L
aL73605187L
aL62038084L
aL52745230L
aL52087479L
aL86154269L
aL43941965L
aL20086864L
aL44834898L
aL1220692L
aL45342805L
aL86567609L
aL29278297L
aL88588379L
aL67649628L
aL42000477L
aL49472869L
aL87466080L
aL95314019L
aL80621585L
aL79706812L
aL54476906L
aL48070763L
aL56030351L
aL78602349L
aL53469295L
aL54904168L
aL54091892L
aL35029110L
aL26427511L
aL74317944L
aL22913044L
aL52830330L
aL38748283L
aL4677760L
aL56197249L
aL27975702L
aL9175178L
aL85188747L
aL91906189L
aL32899214L
aL56149357L
aL96403603L
aL86311061L
aL30245014L
aL61259927L
aL53297304L
aL61325465L
aL16998554L
aL5677217L
aL98648226L
aL62480103L
aL76595366L
aL53936296L
aL3809449L
aL78430379L
aL16064685L
aL67830925L
aL8634547L
aL401588L
aL95559862L
aL88485919L
aL51388607L
aL38232256L
aL14247710L
aL60809412L
aL54886597L
aL37099520L
aL12120097L
aL45727944L
aL44490953L
aL94736284L
aL87752907L
aL78676173L
aL47120591L
aL37888210L
aL27103267L
aL75440340L
aL67993813L
aL46663033L
aL56066264L
aL75243737L
aL73253083L
aL44196060L
aL68731101L
aL18145502L
aL32915679L
aL76308706L
aL55591140L
aL33734891L
aL70066412L
aL32563437L
aL21553390L
aL83288303L
aL19996912L
aL348200L
aL39543026L
aL42336499L
aL63701242L
aL45523201L
aL39873993L
aL71909636L
aL14319878L
aL23343148L
aL19890442L
aL81584398L
aL74875152L
aL54329617L
aL94388498L
aL28740313L
aL85639449L
aL94470426L
aL38633755L
aL4555036L
aL96100639L
aL45138208L
aL71221090L
aL75686178L
aL90325285L
aL16032045L
aL36217134L
aL39821616L
aL66934152L
aL85967155L
aL48546101L
aL85852473L
aL24764731L
aL22293980L
aL45236542L
aL98212576L
aL56787267L
aL33046861L
aL74637646L
aL13214033L
aL4817236L
aL26591576L
aL53862754L
aL91709797L
aL57131366L
aL81658215L
aL55230825L
aL66240878L
aL4817267L
aL15548790L
aL6799739L
aL79577471L
aL76521856L
aL3228036L
aL72589701L
aL69157256L
aL70492555L
aL23388556L
aL18030989L
aL72515982L
aL12657042L
aL64700819L
aL7594388L
aL46391702L
aL55227801L
aL52314521L
aL98615706L
aL8298908L
aL89713001L
aL19005856L
aL28449520L
aL98042276L
aL35938725L
aL28787111L
aL43590058L
aL71115183L
aL92586416L
aL94273972L
aL76892769L
aL17519199L
aL29802939L
aL22749628L
aL61653438L
aL64487871L
aL86974912L
aL60514758L
aL30400969L
aL9961930L
aL54272459L
aL98918861L
aL58237390L
aL12746829L
aL41675512L
aL55640531L
aL60441046L
aL23576770L
aL86581722L
aL4358624L
aL42770913L
aL25403878L
aL17695207L
aL70156778L
aL23667179L
aL76382701L
aL63767024L
aL10027505L
aL8159732L
aL70408958L
aL28074486L
aL68551159L
aL71696888L
aL18165844L
aL74514938L
aL42476027L
aL64225790L
aL67609092L
aL69067272L
aL63455753L
aL43966990L
aL18825743L
aL4579861L
aL60842518L
aL37397015L
aL31482392L
aL78699268L
aL20489647L
aL84288028L
aL71139870L
aL3293727L
aL19800608L
aL1884710L
aL85238312L
aL33480796L
aL12583467L
aL1172914L
aL63152686L
aL41075247L
aL5112369L
aL37274162L
aL26960435L
aL95502900L
aL37118522L
aL86303291L
aL27435580L
aL11403838L
aL71352895L
aL71131713L
aL46836491L
aL39739973L
aL88015430L
aL33710663L
aL95818425L
aL68248138L
aL48248247L
aL29188684L
aL4629072L
aL82567761L
aL52249170L
aL31695446L
aL97883577L
aL54340367L
aL76939871L
aL71185851L
aL80519783L
aL81740394L
aL52953707L
aL82125421L
aL6898286L
aL42648177L
aL60867192L
aL62933780L
aL71254650L
aL80027754L
aL13034113L
aL79561346L
aL28025477L
aL37200518L
aL18769345L
aL15786633L
aL58008202L
aL77816464L
aL13378194L
aL25936533L
aL79192730L
aL29565596L
aL81666718L
aL31916703L
aL49682123L
aL91841187L
aL6021233L
aL74719912L
aL56271529L
aL88998570L
aL47006380L
aL43639469L
aL71123632L
aL23904947L
aL71738041L
aL14475969L
aL7512772L
aL9061063L
aL2491080L
aL19833546L
aL1016524L
aL86459086L
aL26878673L
aL42853075L
aL35660501L
aL75653848L
aL53142991L
aL98394844L
aL22384762L
aL89907938L
aL82755707L
aL33211110L
aL11313896L
aL27804393L
aL17402663L
aL17586984L
aL33957331L
aL53781239L
aL15721208L
aL69157628L
aL60973822L
aL21516416L
aL68485891L
aL48333575L
aL94126857L
aL21914381L
aL6910868L
aL14664463L
aL93766418L
aL4883220L
aL76223674L
aL38423343L
aL79471389L
aL41567006L
aL13013125L
aL48890659L
aL12280612L
aL53191464L
aL857564L
aL32555818L
aL20177707L
aL86721326L
aL33825583L
aL25346865L
aL3228466L
aL34226995L
aL34464564L
aL96871222L
aL59736887L
aL4637496L
aL34104121L
aL49603386L
aL47366973L
aL64979778L
aL6988612L
aL98223585L
aL79692617L
aL49267533L
aL84915862L
aL75121487L
aL56623952L
aL73379826L
aL52101971L
aL10442212L
aL78029662L
aL7996256L
aL11325584L
aL28629819L
aL76735332L
aL41838054L
aL32564070L
aL93696145L
aL14713707L
aL16573295L
aL15139702L
aL40682359L
aL80929660L
aL3326845L
aL65586046L
aL45163395L
aL344964L
aL32121736L
aL85490364L
aL20956048L
aL49742738L
aL13632405L
aL89949082L
aL70387183L
aL12152986L
aL70747038L
aL78734241L
aL59376547L
aL57705380L
aL63947690L
aL64965447L
aL30884780L
aL35554802L
aL34349998L
aL3998645L
aL87016379L
aL18754921L
aL62915520L
aL17943371L
aL94200773L
aL22545352L
aL98386890L
aL47912439L
aL31572940L
aL389282L
aL11166670L
aL66889852L
aL38511571L
aL13566932L
aL33350613L
aL6202326L
aL78824413L
aL5964767L
aL13476835L
aL24814564L
aL10200037L
aL23700454L
aL2556903L
aL34465276L
aL97985514L
aL32073213L
aL11625456L
aL11846642L
aL27739126L
aL83951785L
aL66337620L
aL27255803L
aL21160961L
aL37191851L
aL83338244L
aL39562380L
aL96863241L
aL81085450L
aL40338448L
aL62793219L
aL9597102L
aL46203928L
aL96846873L
aL91603995L
aL92890145L
aL5907491L
aL32753158L
aL22315282L
aL37327026L
aL51000840L
aL20463795L
aL81085492L
aL57492534L
aL93607433L
aL8504376L
aL45700655L
aL107580L
aL87688253L
aL20186177L
aL7382082L
aL21709895L
aL57975880L
aL48219209L
aL85713994L
aL71279692L
aL33645647L
aL87221330L
aL43082835L
aL70108244L
aL49964558L
aL44966998L
aL5456983L
aL6718553L
aL44049498L
aL25150557L
aL30049375L
aL17695841L
aL59147362L
aL70018148L
aL98149479L
aL40723563L
aL6300782L
aL57508977L
aL46630002L
aL20588051L
aL46613620L
aL78931061L
aL11060344L
aL50660476L
aL99107965L
aL1483903L
aL9217152L
aL74228866L
aL24528004L
aL26461718L
aL68330631L
aL84337801L
aL80512535L
aL5465228L
aL21447821L
aL48466797L
aL49294164L
aL60261521L
aL21046418L
aL57787539L
aL85795991L
aL41893347L
aL60761246L
aL89569543L
aL75809953L
aL67404970L
aL12730567L
aL61334700L
aL8799406L
aL95233200L
aL9904328L
aL26315930L
aL38974115L
aL58693151L
aL59802816L
aL95593665L
aL11223243L
aL21406917L
aL12313798L
aL59748813L
aL27247820L
aL60753102L
aL93536348L
aL31827153L
aL48587986L
aL16024789L
aL33440984L
aL29713956L
aL40731868L
aL82814177L
aL70411491L
aL99779813L
aL21538027L
aL49341676L
aL79971566L
aL57230576L
aL72058097L
aL82035954L
aL87582922L
aL63735030L
aL29493288L
aL10888441L
aL6153470L
aL73552085L
aL79332611L
aL46613766L
aL16606475L
aL91030797L
aL60335375L
aL91358482L
aL14547262L
aL97256724L
aL47949077L
aL43746582L
aL41177L
aL74335513L
aL82969883L
aL67814689L
aL10207451L
aL23307557L
aL16762151L
aL95724841L
aL73196844L
aL33594575L
aL19957039L
aL927024L
aL6087985L
aL90441011L
aL65488182L
aL87284617L
aL3310904L
aL10519866L
aL84895035L
aL90560488L
aL72328512L
aL13223234L
aL30532938L
aL16057675L
aL95741260L
aL67028304L
aL82489571L
aL73016660L
aL52634965L
aL91248185L
aL98567512L
aL49426601L
aL85419355L
aL33432924L
aL72516957L
aL67601759L
aL79086947L
aL30123364L
aL6997349L
aL88638824L
aL13705458L
aL18810219L
aL92226925L
aL90863903L
aL54650228L
aL32204150L
aL75564409L
aL99075503L
aL10986876L
aL5318014L
aL29957013L
aL80102906L
aL17053046L
aL34380094L
aL9618824L
aL76039570L
aL66991615L
aL74630552L
aL45802911L
aL59008418L
aL80954787L
aL56567366L
aL54052265L
aL48637355L
aL49939884L
aL4244909L
aL65045934L
aL39634351L
aL57279921L
aL20471558L
aL16895652L
aL25593269L
aL69618591L
aL15312318L
aL911688L
aL7792065L
aL33547715L
aL38462916L
aL97150408L
aL43447884L
aL32466378L
aL77022667L
aL66995663L
aL10134995L
aL41993684L
aL73393623L
aL61736411L
aL59287007L
aL84379105L
aL49505763L
aL42916774L
aL39568870L
aL38454761L
aL67102186L
aL39828391L
aL62154220L
aL4589039L
aL8242672L
aL67225073L
aL43656690L
aL21276150L
aL20588584L
aL30836216L
aL85190138L
aL80274940L
aL89998845L
aL39518600L
aL49792515L
aL67200517L
aL30107142L
aL52463111L
aL53487112L
aL78784009L
aL88696330L
aL1590798L
aL41460812L
aL58803730L
aL40519187L
aL40723988L
aL8824342L
aL18925145L
aL44541465L
aL72771098L
aL59737628L
aL53028387L
aL76809764L
aL7864582L
aL47621673L
aL98338346L
aL37507335L
aL50538028L
aL97666609L
aL51111479L
aL43165240L
aL87746108L
aL44099134L
aL45762111L
aL85009985L
aL59411602L
aL4048451L
aL64030278L
aL96757346L
aL65365583L
aL84837968L
aL77391442L
aL69191253L
aL65463897L
aL26183258L
aL31712862L
aL24151647L
aL12600930L
aL59057765L
aL3836781L
aL23389799L
aL30484076L
aL18915602L
aL42944113L
aL34817651L
aL6915700L
aL74917493L
aL44246646L
aL93820521L
aL32515705L
aL12125818L
aL67036796L
aL71524177L
aL45254273L
aL84960899L
aL74393221L
aL6874759L
aL33166318L
aL90190103L
aL71542414L
aL54994541L
aL56780432L
aL23103123L
aL5809812L
aL85714581L
aL90154648L
aL72296090L
aL91063967L
aL29460128L
aL86189732L
aL28460718L
aL7661232L
aL68994737L
aL88622771L
aL14108340L
aL40085173L
aL34662070L
aL99894967L
aL43435704L
aL31139516L
aL1244106L
aL28567230L
aL9488063L
aL47313184L
aL69273283L
aL27698890L
aL94217932L
aL98821837L
aL50407118L
aL84199129L
aL98748128L
aL98166498L
aL39782117L
aL35759847L
aL55420648L
aL75073258L
aL83797743L
aL72353521L
aL86836980L
aL42706679L
aL68478712L
aL19285756L
aL49866493L
aL13010689L
aL41625348L
aL61105925L
aL54208262L
aL47695624L
aL82634505L
aL64513802L
aL95659787L
aL66791180L
aL69469967L
aL22996752L
aL92333843L
aL7227157L
aL45049623L
aL46393113L
aL30615324L
aL33253150L
aL74000164L
aL93989852L
aL44533383L
aL59400091L
aL32503462L
aL74762032L
aL13641523L
aL21342005L
aL8077970L
aL878392L
aL4388041L
aL59270971L
aL88876864L
aL82995011L
aL7628613L
aL9207563L
aL16156489L
aL20301642L
aL689929L
aL14305101L
aL50800463L
aL8865617L
aL37144405L
aL71403350L
aL6078777L
aL6612824L
aL41728996L
aL46786191L
aL55183198L
aL32425824L
aL93865826L
aL24414051L
aL83833223L
aL92432229L
aL67528550L
aL18892648L
aL71766332L
aL48416619L
aL86853486L
aL24766322L
aL23930741L
aL41789302L
aL3049335L
aL52516798L
aL31557499L
aL87910268L
aL2271106L
aL29960068L
aL58037910L
aL88076609L
aL28960648L
aL63670154L
aL60819339L
aL83079490L
aL20326291L
aL17975190L
aL2650436L
aL143821L
aL3508123L
aL33310620L
aL53094304L
aL61080708L
aL82050033L
aL46221224L
aL22841258L
aL72361901L
aL10848174L
aL7325616L
aL45393893L
aL62953118L
aL20711350L
aL60770231L
aL20654010L
aL47794108L
aL15484862L
aL20342719L
aL97273792L
aL198593L
aL89442243L
aL73050052L
aL42141642L
aL24438734L
aL96529401L
aL35137497L
aL21604315L
aL39012317L
aL61876190L
aL22517413L
aL4213755L
aL22476454L
aL29272038L
aL1894376L
aL88254444L
aL34342895L
aL34269174L
aL41449129L
aL35080186L
aL82626559L
aL38414336L
aL34818L
aL38782979L
aL55444153L
aL5466122L
aL63536027L
aL97830927L
aL66684944L
aL74821976L
aL68847639L
aL21981210L
aL66938908L
aL73082912L
aL48908321L
aL37898274L
aL68323364L
aL85895206L
aL39381032L
aL90589225L
aL61745196L
aL34850861L
aL19253295L
aL83150903L
aL70985787L
aL55855167L
aL81338907L
aL56604146L
aL12355653L
aL25760097L
aL14469193L
aL18769995L
aL10602577L
aL10315860L
aL67905621L
aL29100118L
aL60151344L
aL37534735L
aL12175453L
aL16910431L
aL68864096L
aL80758884L
aL80488550L
aL22718567L
aL24242280L
aL65996905L
aL75589739L
aL98535533L
aL62564029L
aL19654770L
aL80767092L
aL5785720L
aL53282939L
aL91629692L
aL39020669L
aL17434751L
aL39528578L
aL93415555L
aL66685060L
aL37210250L
aL23365771L
aL50169996L
aL66635917L
aL35866766L
aL73799363L
aL93726868L
aL1102190L
aL63495193L
aL84322457L
aL46631066L
aL64768155L
aL40585372L
aL45540842L
aL9218211L
aL47638692L
aL28584102L
aL96596337L
aL37996713L
aL56830122L
aL72894636L
aL80116765L
aL45525170L
aL53542645L
aL92670133L
aL89080206L
aL18622651L
aL32250773L
aL20072640L
aL70387905L
aL64784579L
aL27289797L
aL55191750L
aL17623241L
aL58976458L
aL49842381L
aL65214157L
aL65622392L
aL37849299L
aL95316180L
aL87812315L
aL10021084L
aL39307486L
aL72927455L
aL27158753L
aL36553083L
aL44435690L
aL60410092L
aL71461102L
aL67037424L
aL98494705L
aL80513267L
aL69077236L
aL19253493L
aL12232950L
aL73099511L
aL44042488L
aL3975421L
aL17975552L
aL10084736L
aL16713988L
aL19122444L
aL56355085L
aL69994768L
aL78424261L
aL98715926L
aL65832665L
aL44050712L
aL90048794L
aL43231515L
aL93358364L
aL35378879L
aL51218718L
aL27994403L
aL80480548L
aL28936487L
aL4108679L
aL71862573L
aL90859823L
aL90761521L
aL96897331L
aL76802356L
aL70035766L
aL26257719L
aL32057656L
aL47089978L
aL4778299L
aL94603581L
aL66300222L
aL83151168L
aL78124768L
aL52308292L
aL75958600L
aL83083660L
aL86116682L
aL86075723L
aL58452300L
aL13297997L
aL62964109L
aL35643790L
aL58689879L
aL83405147L
aL58984798L
aL98141925L
aL24660320L
aL40365115L
aL44067176L
aL16583740L
aL28158315L
aL52275567L
aL26790259L
aL9046390L
aL37448055L
aL29616509L
aL930542L
aL64194947L
aL39995780L
aL41492886L
aL1111397L
aL83810028L
aL97735063L
aL86862223L
aL33958289L
aL96070035L
aL93882772L
aL77851030L
aL4441839L
aL91589020L
aL690590L
aL57059745L
aL16992675L
aL56084900L
aL25323946L
aL80333227L
aL50940332L
aL26487216L
aL37281542L
aL2688901L
aL87493050L
aL30722492L
aL99854783L
aL39846304L
aL18233685L
aL64449612L
aL76064503L
aL30460364L
aL94398927L
aL51599604L
aL608723L
aL81393401L
aL95201752L
aL84806107L
aL74385884L
aL67838373L
aL27183587L
aL12290533L
aL83528166L
aL31795687L
aL81168874L
aL88803822L
aL3492338L
aL1190387L
aL26724852L
aL29272565L
aL29649398L
aL25160184L
aL29641214L
aL96238677L
aL22432854L
aL20236808L
aL91441673L
aL17181194L
aL84019723L
aL54413837L
aL94571023L
aL89745938L
aL26651155L
aL69167637L
aL70150678L
aL58837528L
aL19541680L
aL35195420L
aL64104991L
aL94923301L
aL2976295L
aL80422374L
aL54487594L
aL18836011L
aL37379165L
aL77159077L
aL80226869L
aL19769910L
aL10046007L
aL56615348L
aL73288251L
aL79206154L
aL50276928L
aL3918401L
aL54454850L
aL80365323L
aL8989252L
aL6588998L
aL71884555L
aL32344649L
aL40602947L
aL46940599L
aL87951950L
aL57772970L
aL78850640L
aL27060817L
aL32238164L
aL52447834L
aL9488987L
aL67564499L
aL64817759L
aL1944161L
aL17574503L
aL36713615L
aL51735153L
aL37423732L
aL65241534L
aL65661559L
aL94833274L
aL14232188L
aL70568575L
aL81054340L
aL78727813L
aL58600074L
aL90942091L
aL5646994L
aL56625811L
aL81922708L
aL14059289L
aL39185048L
aL84167322L
aL764572L
aL90892958L
aL952992L
aL80095907L
aL14001773L
aL6990503L
aL13650600L
aL44472643L
aL79891116L
aL70126255L
aL64632908L
aL17582771L
aL31099573L
aL543415L
aL3517113L
aL53815995L
aL73312956L
aL88599230L
aL99036277L
aL57109185L
aL77392578L
aL16110027L
aL92113607L
aL57764552L
aL11919821L
aL13352056L
aL83135186L
aL17599187L
aL12949142L
aL27454166L
aL29395673L
aL10463962L
aL96133583L
aL5704413L
aL3714572L
aL59755235L
aL34384613L
aL82037478L
aL9142737L
aL88681197L
aL53054190L
aL56724207L
aL46443256L
aL86223610L
aL83512060L
aL38669054L
aL23546625L
aL11307781L
aL63785734L
aL67947275L
aL29502221L
aL91269903L
aL18812035L
aL87886612L
aL20166446L
aL11536067L
aL85084954L
aL11496219L
aL54053661L
aL84405022L
aL51628831L
aL25383352L
aL11373347L
aL51890981L
aL83594023L
aL88927016L
aL35234049L
aL47074095L
aL17689397L
aL30509878L
aL75179503L
aL97299259L
aL75746110L
aL58636085L
aL16796481L
aL40561475L
aL98061124L
aL18295621L
aL88836934L
aL21179207L
aL24767304L
aL93260940L
aL59684663L
aL65112910L
aL58510159L
aL43821906L
aL34933587L
aL40741716L
aL23127866L
aL61522279L
aL19454946L
aL59306017L
aL92331251L
aL18189458L
aL40438642L
aL10314550L
aL10005364L
aL52423547L
aL18344830L
aL77817328L
aL80137092L
aL75516806L
aL96627596L
aL45804429L
aL13347727L
aL3779472L
aL15821714L
aL6736190L
aL732053L
aL95341466L
aL76451764L
aL89697180L
aL8027290L
aL3369887L
aL66841504L
aL12962721L
aL36113314L
aL29821860L
aL96463781L
aL85355430L
aL60181416L
aL54774697L
aL96357290L
aL60844971L
aL92773161L
aL56740783L
aL29882184L
aL66161587L
aL57682871L
aL12372920L
aL22735804L
aL24726461L
aL47836095L
aL53341120L
aL45091779L
aL32705477L
aL35662794L
aL76571127L
aL94653392L
aL54799318L
aL19476985L
aL61033433L
aL36178908L
aL50310112L
aL31386596L
aL68185061L
aL63613926L
aL29232107L
aL15641581L
aL39947246L
aL72218455L
aL80800758L
aL48131065L
aL38374395L
aL35212284L
aL37234517L
aL8760323L
aL25390084L
aL25283591L
aL55421963L
aL12733453L
aL26389518L
aL13478928L
aL5327889L
aL65670162L
aL36155907L
aL59624468L
aL25938965L
aL50203670L
aL3574809L
aL86608924L
aL85822495L
aL68627490L
aL2083876L
aL92163113L
aL60838407L
aL15862829L
aL86546086L
aL63294512L
aL23669809L
aL83411844L
aL24216372L
aL75820212L
aL77294650L
aL84888635L
aL73452604L
aL42904641L
aL50883654L
aL50385420L
aL97045578L
aL54508727L
aL73504884L
aL32869453L
aL41208910L
aL79359055L
aL93415267L
aL61828180L
aL16026709L
aL62090326L
aL23178329L
aL60378202L
aL16442617L
aL55315550L
aL17763424L
aL25521249L
aL38423650L
aL40520808L
aL9161834L
aL20065389L
aL6589551L
aL89590897L
aL27077746L
aL86232181L
aL45527572L
aL65047675L
aL32042110L
aL15838335L
aL52227201L
aL54930562L
aL82275459L
aL68162070L
aL56200326L
aL47434887L
aL42626185L
aL15584396L
aL43363469L
aL52538512L
aL56642705L
aL14937234L
aL21449875L
aL80512878L
aL24202436L
aL4009114L
aL10202267L
aL48590021L
aL27810558L
aL51653794L
aL77991075L
aL46992549L
aL44413468L
aL59296938L
aL33320112L
aL3618841L
aL33041589L
aL53226679L
aL29002938L
aL91630780L
aL55798974L
aL24631157L
aL40258763L
aL69233860L
aL12724086L
aL5917894L
aL7015624L
aL77393098L
aL30592203L
aL41127116L
aL48442574L
aL85478608L
aL10153169L
aL29199570L
aL43846867L
aL50334932L
aL70113145L
aL15608725L
aL50851035L
aL82611421L
aL21687520L
aL46968033L
aL84125563L
aL46730468L
aL68720529L
aL59704838L
aL52112620L
aL97455353L
aL65498362L
aL13831419L
aL22409770L
aL31722753L
aL90054349L
aL58060035L
aL22744327L
aL87485705L
aL53529866L
aL47590668L
aL97168655L
aL27618250L
aL2862355L
aL73862421L
aL54971670L
aL20376856L
aL89361689L
aL69799195L
aL65423237L
aL46034208L
aL4990668L
aL71970085L
aL8323633L
aL11275560L
aL31496071L
aL22875436L
aL12340526L
aL82255069L
aL37989680L
aL76492081L
aL50048307L
aL61164852L
aL46601712L
aL30461243L
aL93703487L
aL31296834L
aL85297035L
aL42110276L
aL1879367L
aL32140616L
aL37825866L
aL79088971L
aL61345103L
aL55790928L
aL99806546L
aL44408289L
aL45133141L
aL58219268L
aL54095191L
aL7581019L
aL30338398L
aL27020640L
aL29912423L
aL85828156L
aL65514861L
aL22515057L
aL83668340L
aL88841449L
aL30297464L
aL73461119L
aL9252226L
aL77385091L
aL30182788L
aL16846214L
aL98480705L
aL48041352L
aL56667529L
aL83783050L
aL66522507L
aL2452876L
aL98037134L
aL80899472L
aL42243992L
aL29052307L
aL20483476L
aL85495189L
aL2649497L
aL51858843L
aL84643231L
aL46026165L
aL14790058L
aL91786667L
aL26103214L
aL9350575L
aL45829552L
aL22285745L
aL39710131L
aL28396980L
aL57101749L
aL51408312L
aL74837433L
aL46190011L
aL71216572L
aL91382346L
aL79015359L
aL28272544L
aL81194435L
aL13864388L
aL78851525L
aL33992135L
aL84110792L
aL95743433L
aL81817034L
aL52006347L
aL63770061L
aL94965206L
aL91213271L
aL45247962L
aL16453084L
aL80678365L
aL17788383L
aL2895329L
aL5147899L
aL19820006L
aL15863271L
aL57937384L
aL19090921L
aL62755410L
aL91180526L
aL28528113L
aL69561843L
aL46566902L
aL18034170L
aL85807701L
aL81743360L
aL77966852L
aL48721415L
aL41741836L
aL4845069L
aL673709L
aL28176L
aL77375406L
aL66866712L
aL14274073L
aL83086878L
aL65228322L
aL60280355L
aL77715377L
aL23825961L
aL73879082L
aL69865003L
aL33033772L
aL26915421L
aL46419506L
aL86470197L
aL67486516L
aL79367738L
aL95202875L
aL81640110L
aL2010691L
aL40595013L
aL93572680L
aL6966857L
aL84266570L
aL45624907L
aL82472524L
aL59272781L
aL17829454L
aL73707087L
aL71233105L
aL60788312L
aL98389594L
aL21609743L
aL76697181L
aL61730398L
aL55717471L
aL12725856L
aL87395938L
aL99520105L
aL91958893L
aL446062L
aL49540719L
aL69430897L
aL13438227L
aL67819454L
aL14134902L
aL77016700L
aL73510526L
aL22072959L
aL50982528L
aL46550658L
aL63464043L
aL68382341L
aL12162405L
aL58912392L
aL17395338L
aL69575263L
aL55889548L
aL12062349L
aL14741134L
aL49434259L
aL43806357L
aL87363224L
aL11006575L
aL61681308L
aL46321313L
aL95514274L
aL92425891L
aL51236516L
aL27812465L
aL4648619L
aL24465068L
aL89681581L
aL78327472L
aL66499866L
aL23604923L
aL16674492L
aL24284864L
aL36515523L
aL60419782L
aL98340552L
aL70160077L
aL98062031L
aL86224593L
aL48541395L
aL62697173L
aL29937366L
aL39890650L
aL73436892L
aL79310007L
aL99618085L
aL80563936L
aL52301539L
aL61722341L
aL48738023L
aL60305137L
aL47361780L
aL31158006L
aL81022713L
aL37613307L
aL48730815L
aL46026496L
aL21597954L
aL31674117L
aL54193930L
aL95579915L
aL47214352L
aL97005332L
aL9540893L
aL88715035L
aL36589341L
aL88370974L
aL51441440L
aL66846000L
aL10150534L
aL97714646L
aL700201L
aL7049002L
aL27479851L
aL11407148L
aL24993074L
aL18149170L
aL50277683L
aL78466868L
aL28192565L
aL70258486L
aL63038260L
aL91975480L
aL77868340L
aL25571133L
aL56479551L
aL70528832L
aL64919520L
aL77229890L
aL9989957L
aL45694748L
aL95178567L
aL22310729L
aL11210570L
aL82341710L
aL66826063L
aL32526161L
aL71053139L
aL86069080L
aL68267865L
aL24006490L
aL60837724L
aL77131066L
aL80523102L
aL78409567L
aL86437273L
aL28897121L
aL40030051L
aL57552741L
aL17272679L
aL91933841L
aL59027306L
aL47394667L
aL20098924L
aL85626733L
aL26005358L
aL85069680L
aL99315569L
aL56020850L
aL51351411L
aL42381172L
aL22687606L
aL43372410L
aL2559923L
aL10276736L
aL85782401L
aL1339268L
aL68333446L
aL24891272L
aL2977675L
aL13954957L
aL61550481L
aL82268051L
aL57154617L
aL52391830L
aL70569243L
aL38891418L
aL88682395L
aL24407964L
aL75039386L
aL40284062L
aL16858437L
aL71124668L
aL55603105L
aL34369442L
aL8474531L
aL22974372L
aL87037285L
aL3985321L
aL96055210L
aL95665479L
aL929711L
aL99397552L
aL41840563L
aL44232628L
aL60264373L
aL57520054L
aL40873911L
aL21860280L
aL85716921L
aL13987770L
aL24178619L
aL23777213L
aL74689897L
aL16379211L
aL22482885L
aL91697094L
aL35180487L
aL43356105L
aL92592119L
aL62612373L
aL98505379L
aL54022102L
aL32403416L
aL18403289L
aL74846171L
aL4870108L
aL68136928L
aL40923105L
aL59543523L
aL48656361L
aL55939055L
aL58929136L
aL20885490L
aL72959912L
aL80515061L
aL4624375L
aL86872056L
aL49844223L
aL61100033L
aL5337090L
aL46141444L
aL63410181L
aL47501318L
aL80097287L
aL21745673L
aL2478091L
aL53424140L
aL45508610L
aL51458065L
aL54110211L
aL34271252L
aL63041557L
aL31993879L
aL54890524L
aL32944157L
aL65949727L
aL47157281L
aL73117730L
aL49303587L
aL40210471L
aL53334056L
aL87781418L
aL71905324L
aL94466101L
aL79908919L
aL46075965L
aL11243582L
aL66448736L
aL6942786L
aL55073091L
aL22270030L
aL8597588L
aL38981717L
aL74572473L
aL18731104L
aL26519568L
aL53481570L
aL21050043L
aL62601233L
aL96022632L
aL79155307L
aL11349889L
aL68614162L
aL12202102L
aL77320311L
aL21428244L
aL65613946L
aL20770939L
aL47673468L
aL58372221L
aL56143999L
aL21467264L
aL55046273L
aL53497989L
aL41332870L
aL89641096L
aL77303946L
aL59382923L
aL15929488L
aL64256024L
aL99192978L
aL18395287L
aL2060442L
aL41775265L
aL97235106L
aL49864786L
aL48719542L
aL15265958L
aL64407095L
aL73011371L
aL87650478L
aL35590320L
aL8499377L
aL61157554L
aL47968438L
aL94023872L
aL70740000L
aL26251460L
aL63402181L
aL11227337L
aL76458018L
aL34467851L
aL35270008L
aL64164297L
aL14022691L
aL73330901L
aL34582742L
aL43864279L
aL79941849L
aL72446171L
aL23490780L
aL38814328L
aL63869152L
aL7180513L
aL4100323L
aL69505252L
aL61499430L
aL61267324L
aL4313323L
aL49631469L
aL63697134L
aL1945839L
aL5624048L
aL42887208L
aL35123443L
aL50371966L
aL43503863L
aL58716408L
aL26144985L
aL9974015L
aL73093376L
aL72798465L
aL57950063L
aL25542017L
aL92344584L
aL6058251L
aL83038478L
aL43296813L
aL88977680L
aL74944787L
aL63435031L
aL44043652L
aL75510043L
aL31510814L
aL86700320L
aL63557921L
aL24555810L
aL37851427L
aL90747172L
aL70308138L
aL47231278L
aL46912221L
aL80949552L
aL74390667L
aL18084151L
aL50066650L
aL168251L
aL56422716L
aL69554496L
aL80720193L
aL51786050L
aL88128892L
aL58880324L
aL65540422L
aL89248481L
aL37076747L
aL25841993L
aL98632418L
aL19018062L
aL15733071L
aL82473297L
aL21172562L
aL4247891L
aL14389590L
aL59863383L
aL7369048L
aL37802329L
aL13165996L
aL33853788L
aL67417463L
aL88281027L
aL82366815L
aL52469136L
aL6377826L
aL65288251L
aL39457125L
aL68268395L
aL12079469L
aL5173614L
aL50590065L
aL86643058L
aL85437843L
aL19403124L
aL35049848L
aL24641569L
aL96489851L
aL16331498L
aL43606763L
aL73775169L
aL16847246L
aL87347599L
aL7926160L
aL80441747L
aL50393493L
aL71684502L
aL62288279L
aL75977112L
aL73036186L
aL55300847L
aL85851546L
aL31961502L
aL14420037L
aL58206211L
aL11891106L
aL86274467L
aL37720484L
aL87622385L
aL13996456L
aL69521836L
aL58741166L
aL80105903L
aL20107696L
aL82514358L
aL33960376L
aL50213309L
aL92598718L
aL15479234L
aL13899852L
aL88224202L
aL4813259L
aL46502349L
aL83153361L
aL76471715L
aL40792535L
aL18190813L
aL99676640L
aL88625634L
aL20755195L
aL74822117L
aL55800298L
aL21459442L
aL14250484L
aL11451817L
aL85788756L
aL38007292L
aL18887167L
aL95425025L
aL34454955L
aL67015175L
aL35041800L
aL24090711L
aL78688780L
aL55104014L
aL16028177L
aL30102034L
aL39538864L
aL51122708L
aL38825390L
aL38793750L
aL49386007L
aL44241434L
aL51023279L
aL46477852L
aL2306590L
aL93098757L
aL28925360L
aL51524131L
aL30020134L
aL50703793L
aL42340904L
aL15847978L
aL35164722L
aL16388662L
aL93922057L
aL46527032L
aL44053049L
aL45085247L
aL97415745L
aL94548549L
aL52195916L
aL94453270L
aL2757198L
aL98374223L
aL47649360L
aL66548306L
aL15135315L
aL81785429L
aL15184470L
aL89338455L
aL92754521L
aL74797661L
aL30454366L
aL81130079L
aL15617468L
aL21170279L
aL25555567L
aL68571923L
aL62583412L
aL43299446L
aL25241705L
aL74592890L
aL22141096L
aL15954556L
aL31855229L
aL30347904L
aL69538435L
aL61665924L
aL73798278L
aL8860296L
aL86889097L
aL79688330L
aL61239948L
aL74309058L
aL24916624L
aL66450066L
aL10857923L
aL11063956L
aL71283350L
aL87822999L
aL25249903L
aL78877341L
aL62550688L
aL89477793L
aL33067682L
aL44118811L
aL15184548L
aL62853797L
aL58456177L
aL65450667L
aL99794370L
aL2986676L
aL3625653L
aL59404983L
aL41947833L
aL61129503L
aL17518026L
aL8565439L
aL10597056L
aL87519938L
aL30421699L
aL92336837L
aL65942214L
aL39097121L
aL22434506L
aL51614412L
aL76534479L
aL38941397L
aL22811350L
aL32109271L
aL62223065L
aL74167003L
aL85922524L
aL33927901L
aL79041246L
aL98471922L
aL63664866L
aL5223140L
aL98718438L
aL80974567L
aL31552232L
aL33870569L
aL89109226L
aL26465063L
aL37204717L
aL91984622L
aL52687599L
aL19886833L
aL20992755L
aL10400500L
aL5993207L
aL9786107L
aL94081789L
aL37401342L
aL77878016L
aL24048387L
aL85962198L
aL29192967L
aL49001225L
aL10359562L
aL26317579L
aL9736972L
aL73427074L
aL31265550L
aL80147217L
aL82131075L
aL61149998L
aL88912664L
aL49625220L
aL82440986L
aL61829915L
aL87429918L
aL30300293L
aL55145248L
aL61256481L
aL3341476L
aL46183204L
aL85144359L
aL35443496L
aL7664425L
aL75780906L
aL69017141L
aL67056430L
aL78099247L
aL39867186L
aL66409267L
aL11916084L
aL44176183L
aL74765112L
aL52220729L
aL11875131L
aL59192124L
aL11776830L
aL33813313L
aL79485067L
aL9773878L
aL96727879L
aL29741901L
aL43438928L
aL49091411L
aL56570076L
aL71177046L
aL49173305L
aL76805629L
aL81474396L
aL92689245L
aL99483109L
aL61985634L
aL63542115L
aL17871239L
aL7033701L
aL62051174L
aL67138407L
aL71168872L
aL86381418L
aL30043623L
aL56456045L
aL28210030L
aL841875L
aL73108969L
aL36017016L
aL82981756L
aL31421309L
aL93739157L
aL30331777L
aL49124230L
aL33214638L
aL36653207L
aL66757442L
aL99906451L
aL13693844L
aL7082902L
aL17322904L
aL87802692L
aL94352282L
aL61379483L
aL74290076L
aL93860677L
aL61903586L
aL20190115L
aL37073828L
aL70503537L
aL1315753L
aL4199338L
aL81458091L
aL36287404L
aL55655922L
aL77140912L
aL35591090L
aL70996916L
aL27718581L
aL8199669L
aL16077760L
aL44035574L
aL52974536L
aL20227265L
aL4223954L
aL78992339L
aL799700L
aL8041430L
aL50639831L
aL40401426L
aL16110556L
aL27644894L
aL82236384L
aL69620707L
aL52810724L
aL55117990L
aL93430609L
aL85778612L
aL25891818L
aL8369132L
aL93983725L
aL76542958L
aL11720872L
aL529395L
aL15684598L
aL48552105L
aL50140155L
aL17282044L
aL79344637L
aL48821249L
aL58643460L
aL73839624L
aL4887561L
aL48698378L
aL45339662L
aL20272144L
aL56505361L
aL51934226L
aL36732419L
aL11195414L
aL16266264L
aL88658974L
aL99734560L
aL79426598L
aL36009000L
aL50050091L
aL72995892L
aL98915381L
aL30086202L
aL70218814L
aL93814445L
aL64066626L
aL87626819L
aL9212999L
aL25308684L
aL82973770L
aL3077195L
aL18043980L
aL30741581L
aL37639246L
aL19502160L
aL41645138L
aL97465430L
aL13612124L
aL83301469L
aL7738465L
aL81179747L
aL3822692L
aL90259473L
aL61387878L
aL64467890L
aL46306409L
aL40320531L
aL41129076L
aL59528309L
aL21828730L
aL31618171L
aL53711998L
aL38499455L
aL13194368L
aL93077014L
aL92435590L
aL11121799L
aL93836424L
aL16357033L
aL28480651L
aL26981517L
aL92181647L
aL37647504L
aL38311057L
aL34976916L
aL64631957L
aL33223830L
aL35533976L
aL22590617L
aL58578076L
aL16087237L
aL41825441L
aL22951074L
aL98093254L
aL56169641L
aL20018348L
aL33715373L
aL53769392L
aL84415665L
aL57177267L
aL44758197L
aL73365853L
aL50779322L
aL75614410L
aL15848638L
aL27997379L
aL70628552L
aL47633609L
aL12751736L
aL19576018L
aL15717587L
aL32773332L
aL51893462L
aL45896922L
aL14816475L
aL59765981L
aL25687262L
aL18224351L
aL21279974L
aL99243240L
aL32150762L
aL70358254L
aL24302839L
aL23901435L
aL7484669L
aL83301632L
aL83555587L
aL44758289L
aL11433235L
aL57210133L
aL30881048L
aL67709438L
aL6771994L
aL8205597L
aL9327904L
aL49905200L
aL67188002L
aL70898979L
aL91100453L
aL97178918L
aL73381164L
aL27473201L
aL8434995L
aL86157534L
aL72045880L
aL34018620L
aL14800191L
aL14374211L
aL32019781L
aL86308168L
aL15963467L
aL99046735L
aL55814959L
aL37737811L
aL5829973L
aL81859927L
aL17970522L
aL71095645L
aL17306974L
aL9409888L
aL76191340L
aL46396771L
aL26170937L
aL38122854L
aL27243885L
aL56431983L
aL96306869L
aL68113781L
aL7264654L
aL50042231L
aL66721144L
aL7771028L
aL39150485L
aL25490817L
aL94958981L
aL80844166L
aL70628744L
aL37344649L
aL1938828L
aL77854093L
aL57090564L
aL78099855L
aL76846484L
aL89003417L
aL56219035L
aL71161247L
aL71923106L
aL3178054L
aL34923712L
aL39654829L
aL90087157L
aL80967092L
aL58889654L
aL7487049L
aL46872820L
aL94860730L
aL73085855L
aL50509244L
aL21321150L
aL341441L
aL72218051L
aL95565255L
aL9131469L
aL45489741L
aL15750610L
aL13596115L
aL67270104L
aL49042908L
aL46233057L
aL93746658L
aL36132324L
aL26924522L
aL49485291L
aL98817517L
aL59509057L
aL33478128L
aL16913906L
aL13006324L
aL5420533L
aL54130167L
aL37983736L
aL97236473L
aL1127931L
aL39044010L
aL97220094L
aL21001727L
aL99890690L
aL96859651L
aL61470215L
aL96302600L
aL73995785L
aL56391181L
aL86414862L
aL73368493L
aL25458193L
aL29267475L
aL12424730L
aL64271900L
aL29079071L
aL51279396L
aL6297125L
aL56432170L
aL40244779L
aL11091526L
aL43505197L
aL45502045L
aL57538096L
aL17348149L
aL15193654L
aL11269689L
aL50615875L
aL26900036L
aL51893301L
aL12482120L
aL61169760L
aL55170636L
aL35280461L
aL87594574L
aL70620751L
aL79984209L
aL40121938L
aL23109219L
aL33207894L
aL19715675L
aL58865247L
aL44029538L
aL95241147L
aL66844260L
aL6993511L
aL82728553L
aL62207594L
aL34714767L
aL59741809L
aL57013875L
aL6706804L
aL2102902L
aL81802874L
aL89273984L
aL10986432L
aL81958531L
aL35206788L
aL90810646L
aL45340295L
aL71554696L
aL55615084L
aL7018129L
aL47719363L
aL58152596L
aL76174998L
aL31143575L
aL81172126L
aL93836229L
aL56546978L
aL7386787L
aL15482783L
aL1365669L
aL9442982L
aL65525417L
aL51132074L
aL85005999L
aL7329459L
aL94746293L
aL55828084L
aL11131357L
aL43120315L
aL40679103L
aL29226688L
aL71055648L
aL76584643L
aL77412037L
aL19199688L
aL37721802L
aL44062411L
aL76969677L
aL93504461L
aL19063812L
aL47879890L
aL42178259L
aL60217046L
aL80500439L
aL75126488L
aL91780829L
aL44119776L
aL1284390L
aL78911208L
aL57497321L
aL26736363L
aL34068204L
aL73275117L
aL48371438L
aL69490984L
aL70726611L
aL97015542L
aL64960247L
aL45147092L
aL93755130L
aL54540030L
aL60677115L
aL35469060L
aL50501383L
aL62413100L
aL43054858L
aL61757195L
aL80729869L
aL38000398L
aL6051599L
aL74946323L
aL81172245L
aL72546071L
aL14915352L
aL62865028L
aL85964571L
aL77993756L
aL83138333L
aL6002463L
aL92600096L
aL65345315L
aL49693534L
aL81070616L
aL30028764L
aL69457706L
aL74068289L
aL95601629L
aL82849416L
aL20494133L
aL79714103L
aL8361786L
aL82125791L
aL30553918L
aL64674101L
aL95818720L
aL31643459L
aL57988934L
aL80836424L
aL46847819L
aL22271820L
aL47306575L
aL97163088L
aL81802211L
aL78839438L
aL19404630L
aL34863417L
aL79828825L
aL61740892L
aL64730973L
aL57931614L
aL45774687L
aL91256673L
aL2996067L
aL42314769L
aL61257573L
aL80492390L
aL34805609L
aL57456490L
aL4216684L
aL59062129L
aL95387283L
aL88373108L
aL81401717L
aL46364536L
aL51251125L
aL69286207L
aL67925885L
aL57257621L
aL43112320L
aL46888835L
aL44185477L
aL39916739L
aL5773191L
aL58816392L
aL89077641L
aL76158079L
aL26523533L
aL28161005L
aL75152330L
aL81587864L
aL49527107L
aL84006805L
aL38434711L
aL5846936L
aL83990425L
aL85276571L
aL88405919L
aL2414496L
aL8624033L
aL858020L
aL54867877L
aL97327018L
aL82327467L
aL40654767L
aL35502000L
aL6305713L
aL78329786L
aL95836091L
aL57980861L
aL6739902L
aL24991681L
aL53573251L
aL9754565L
aL80926662L
aL29101729L
aL33220424L
aL30324684L
aL84703181L
aL95647694L
aL97671122L
aL5502933L
aL76586660L
aL16259036L
aL38893535L
aL95737824L
aL39085051L
aL1103844L
aL62871526L
aL9336808L
aL25930599L
aL25868267L
aL20035565L
aL16040907L
aL56718333L
aL68728819L
aL11786229L
aL46217207L
aL79497759L
aL24721749L
aL66107392L
aL4610051L
aL65008641L
aL76494857L
aL44529674L
aL83589131L
aL18733070L
aL72972303L
aL77600785L
aL50608146L
aL93100052L
aL80312344L
aL97555460L
aL23854767L
aL64083998L
aL44734495L
aL57055264L
aL5861040L
aL70959122L
aL99465251L
aL50755620L
aL81770533L
aL26483842L
aL59039409L
aL2037802L
aL40196141L
aL64158927L
aL60463453L
aL93378608L
aL88717361L
aL57104434L
aL97073210L
aL71403871L
aL56473665L
aL63584324L
aL14579781L
aL75741255L
aL32793030L
aL89790540L
aL14286373L
aL27892067L
aL11581524L
aL72628309L
aL29636694L
aL37607511L
aL51427418L
aL18099898L
aL27981919L
aL91928676L
aL78501992L
aL8493161L
aL66066538L
aL62519405L
aL72726638L
aL63848125L
aL2046065L
aL6592628L
aL18765943L
aL49854586L
aL4308668L
aL3078272L
aL88709250L
aL67795075L
aL46340228L
aL22173829L
aL39401606L
aL47159431L
aL22681257L
aL79566986L
aL62707851L
aL60430477L
aL64108686L
aL59783312L
aL49084563L
aL99989652L
aL76535957L
aL25327766L
aL18593945L
aL54274415L
aL63395998L
aL9009311L
aL26367368L
aL79026339L
aL84695204L
aL16701606L
aL77265063L
aL87521448L
aL80050345L
aL55538458L
aL66279794L
aL43842236L
aL13031602L
aL84146355L
aL47033498L
aL47913147L
aL10238140L
aL63355070L
aL95000767L
aL32659649L
aL43055301L
aL74168522L
aL92367223L
aL84965582L
aL78683853L
aL3356880L
aL63494707L
aL75281367L
aL4118745L
aL14817498L
aL8779996L
aL5674022L
aL32946406L
aL93419751L
aL88037611L
aL34691308L
aL35879152L
aL46135539L
aL11254004L
aL64289014L
aL73300222L
aL45005056L
aL66944726L
aL12761350L
aL66197438L
aL49436937L
aL96475404L
aL719118L
aL17955087L
aL92626648L
aL45398290L
aL78489987L
aL63412502L
aL80034074L
aL57789736L
aL40089888L
aL23779620L
aL77502758L
aL43899176L
aL42162473L
aL64485674L
aL37493035L
aL2824492L
aL6822195L
aL15530292L
aL64878901L
aL30144822L
aL94434522L
aL87331892L
aL3733820L
aL30030142L
aL18338869L
aL62273857L
aL63248707L
aL25557316L
aL56187206L
aL99006791L
aL36337996L
aL833871L
aL87368760L
aL97384789L
aL20658519L
aL72024L
aL41210938L
aL670046L
aL50141535L
aL90429793L
aL9967970L
aL24336739L
aL21829988L
aL92767292L
aL6003051L
aL84474221L
aL43580095L
aL78649714L
aL62085494L
aL5634423L
aL84801912L
aL49584532L
aL85770329L
aL85793152L
aL65845638L
aL70261127L
aL79796616L
aL22746178L
aL80533902L
aL68729231L
aL32618897L
aL46119315L
aL23173524L
aL50445932L
aL70891926L
aL94116248L
aL36526490L
aL37501340L
aL77724058L
aL72399271L
aL63019434L
aL13458217L
aL63986094L
aL22444463L
aL64559226L
aL38025650L
aL94129828L
aL27384246L
aL46372156L
aL39147961L
aL45529533L
aL49037045L
aL25569856L
aL54467012L
aL54251254L
aL62142918L
aL99539399L
aL35142088L
aL4068428L
aL2111949L
aL12376529L
aL38566358L
aL53098967L
aL44841433L
aL13195739L
aL13049594L
aL20437472L
aL27531745L
aL32725480L
aL92324946L
aL73865714L
aL61626869L
aL22985206L
aL6298104L
aL95828474L
aL2727797L
aL6986237L
aL23880789L
aL96530044L
aL22911492L
aL30030345L
aL17644044L
aL9771534L
aL1014290L
aL61962771L
aL74021396L
aL69048855L
aL65427992L
aL9868130L
aL25647646L
aL16469765L
aL34675235L
aL24607269L
aL16836087L
aL52059911L
aL254729L
aL32291375L
aL20421169L
aL88562227L
aL18856500L
aL65870394L
aL98329695L
aL48085568L
aL81074753L
aL95615555L
aL65591876L
aL76667462L
aL24574535L
aL34609737L
aL3955280L
aL16644689L
aL80157271L
aL90854500L
aL45103709L
aL55835231L
aL29039202L
aL14080611L
aL51190380L
aL46751364L
aL21346926L
aL24892520L
aL80878196L
aL26588265L
aL27196024L
aL24099078L
aL70343293L
aL57661540L
aL1105686L
aL91912838L
aL11168193L
aL81358976L
aL35043979L
aL69130893L
aL52861582L
aL5380751L
aL27064976L
aL68737476L
aL67811995L
aL49109660L
aL68762270L
aL76577221L
aL93925249L
aL27884195L
aL63847076L
aL78444998L
aL6732455L
aL66371356L
aL93248171L
aL64889970L
aL80681646L
aL56220341L
aL70269623L
aL45773940L
aL49617596L
aL11066046L
aL60742335L
aL39718688L
aL89709251L
aL34634436L
aL16808651L
aL9927374L
aL87153362L
aL16991449L
aL744160L
aL89930465L
aL76741346L
aL10099427L
aL96993062L
aL31439313L
aL50091283L
aL91061035L
aL12540651L
aL43244268L
aL63322861L
aL29407982L
aL35683055L
aL11508464L
aL49478387L
aL80288503L
aL19338367L
aL30161661L
aL92273406L
aL42588927L
aL34593537L
aL2964226L
aL48271147L
aL84097171L
aL56670981L
aL61479689L
aL71244554L
aL25164556L
aL25999405L
aL46054160L
aL31263192L
aL21535507L
aL15015726L
aL36502297L
aL4922143L
aL39332383L
aL65793465L
aL73767714L
aL66272037L
aL90381095L
aL50920232L
aL35306281L
aL64076586L
aL28849287L
aL49085229L
aL80517935L
aL19454768L
aL61217585L
aL55802679L
aL53500729L
aL79600443L
aL72883012L
aL80509768L
aL15516812L
aL46493495L
aL11017039L
aL73382736L
aL8321873L
aL73464659L
aL17496916L
aL9468514L
aL90987351L
aL43178841L
aL58545295L
aL32373596L
aL47340381L
aL73366367L
aL50484368L
aL60537698L
aL36322147L
aL9296741L
aL20650854L
aL86627473L
aL72336429L
aL41504573L
aL92321271L
aL69663602L
aL88203370L
aL92019574L
aL46545783L
aL62144729L
aL77339515L
aL33250176L
aL86273707L
aL75094920L
aL79707017L
aL97868683L
aL75324300L
aL76311022L
aL49215657L
aL40311707L
aL51269445L
aL96762785L
aL20585379L
aL83942310L
aL15864994L
aL12106665L
aL17791916L
aL25951149L
aL95394736L
aL56597429L
aL3395401L
aL83008445L
aL81861566L
aL20118463L
aL36084672L
aL62856136L
aL92134346L
aL65657803L
aL99318733L
aL94608334L
aL2071503L
aL70741838L
aL28859350L
aL12540888L
aL19446745L
aL26500058L
aL71447980L
aL62290908L
aL81837021L
aL40549342L
aL94116831L
aL54320976L
aL95230946L
aL71271490L
aL35535847L
aL12540908L
aL42318830L
aL96230384L
aL66362353L
aL37305330L
aL44375029L
aL10968054L
aL68794879L
aL71752700L
aL589654L
aL45448199L
aL62176265L
aL30325771L
aL43113486L
aL95722511L
aL54991889L
aL48872470L
aL17718297L
aL42703898L
aL97221661L
aL28285982L
aL77575344L
aL17603618L
aL12352547L
aL14490660L
aL77649073L
aL56741724L
aL55172139L
aL96574513L
aL3816504L
aL88587321L
aL61865019L
aL73946293L
aL53320772L
aL75521097L
aL38263882L
aL40311885L
aL37661197L
aL8764496L
aL18091875L
aL48954452L
aL48829441L
aL8821848L
aL78765924L
aL3946859L
aL97270877L
aL74701921L
aL95583333L
aL17022054L
aL68394087L
aL11484265L
aL78674450L
aL42122350L
aL66157680L
aL77880434L
aL81709587L
aL20364405L
aL80780406L
aL97197929L
aL59153528L
aL94474376L
aL32900288L
aL23927938L
aL87227636L
aL33021062L
aL416903L
aL71040136L
aL1883273L
aL5667979L
aL46169228L
aL53120877L
aL39263377L
aL99523730L
aL93746371L
aL38632596L
aL2423961L
aL89488538L
aL20184219L
aL85433500L
aL41884830L
aL80241861L
aL37293936L
aL31349924L
aL85556389L
aL90905768L
aL18381993L
aL4045994L
aL53435564L
aL28851374L
aL2742813L
aL5471408L
aL46734519L
aL15957178L
aL19274939L
aL77962431L
aL90700992L
aL2448578L
aL83524619L
aL41802950L
aL98147531L
aL10878157L
aL73661647L
aL949464L
aL1408219L
aL76397789L
aL61193444L
aL57310437L
aL55516390L
aL24200401L
aL53681385L
aL93914630L
aL18037287L
aL83254508L
aL10998994L
aL34634991L
aL23035120L
aL76362127L
aL59161843L
aL52600052L
aL27671800L
aL87522558L
aL59301119L
aL79060224L
aL36642049L
aL39484676L
aL55876870L
aL77311873L
aL63319071L
aL3308814L
aL42474767L
aL74186004L
aL79475483L
aL37821719L
aL62564911L
aL68533533L
aL49560867L
aL46415142L
aL99542236L
aL84909354L
aL22486316L
aL20127021L
aL29191797L
aL83688752L
aL89292081L
aL78535986L
aL6675763L
aL59962590L
aL38436151L
aL51483871L
aL36917131L
aL65584452L
aL97090885L
aL4242759L
aL88743242L
aL58342735L
aL95824357L
aL9321821L
aL2981215L
aL5122619L
aL72752486L
aL15629672L
aL23108969L
aL33488236L
aL31743341L
aL96214383L
aL2399602L
aL98961384L
aL65174907L
aL21904764L
aL60890493L
aL54975870L
aL75120001L
aL47046018L
aL23705788L
aL2530704L
aL548241L
aL56008085L
aL14581144L
aL30498202L
aL76602779L
aL46890397L
aL33660323L
aL9262266L
aL65346119L
aL52856050L
aL19307952L
aL45063602L
aL80436661L
aL95726506L
aL62483017L
aL5062074L
aL46644667L
aL84450748L
aL61573706L
aL42868158L
aL76889535L
aL27606466L
aL14884291L
aL73227718L
aL90668488L
aL77716940L
aL85646797L
aL83598798L
aL59932112L
aL25502969L
aL14122457L
aL59720531L
aL27101775L
aL22415885L
aL2932193L
aL48274914L
aL9215459L
aL55391200L
aL1426089L
aL81985003L
aL92937709L
aL99573232L
aL97895768L
aL15097333L
aL18906615L
aL79546844L
aL33119745L
aL19013547L
aL56565252L
aL57564677L
aL22815240L
aL15212039L
aL96812552L
aL38667178L
aL71130641L
aL43875859L
aL21593621L
aL71753238L
aL95518232L
aL34373146L
aL22384559L
aL4185635L
aL38886948L
aL40959525L
aL70581798L
aL33308202L
aL59604523L
aL13229612L
aL5668405L
aL4431406L
aL13393456L
aL843314L
aL31710771L
aL24010293L
aL31890999L
aL49471033L
aL19111482L
aL89841213L
aL4046401L
aL79684875L
aL65019462L
aL11763271L
aL73481801L
aL82402890L
aL28819021L
aL17657784L
aL49525834L
aL51256917L
aL99229274L
aL55750586L
aL55672415L
aL56221281L
aL98611131L
aL60563044L
aL52239980L
aL55189106L
aL8765043L
aL21700212L
aL7593596L
aL81215101L
aL14687870L
aL92118657L
aL93576835L
aL9961092L
aL66725142L
aL57064531L
aL47209068L
aL80461451L
aL97451661L
aL31260302L
aL70966927L
aL76906128L
aL48559384L
aL51863187L
aL79634068L
aL69295769L
aL8855194L
aL74464924L
aL6247706L
aL5812165L
aL83836576L
aL2236065L
aL86248092L
aL2694820L
aL48619177L
aL51011245L
aL76897967L
aL68673201L
aL48930486L
aL8170437L
aL49200828L
aL47742922L
aL43818690L
aL69586891L
aL33988294L
aL53208353L
aL59522762L
aL3407565L
aL33455823L
aL72900304L
aL95502038L
aL92151512L
aL12230370L
aL66731748L
aL67605798L
aL58531559L
aL24174314L
aL26033901L
aL97623797L
aL36355832L
aL19005177L
aL30547706L
aL92269183L
aL61873916L
aL38952702L
aL49889028L
aL38657798L
aL64214633L
aL53452552L
aL156972L
aL64880394L
aL28450571L
aL18702095L
aL65159552L
aL32087827L
aL18423572L
aL61398806L
aL55861015L
aL98254616L
aL41778969L
aL94830364L
aL85188382L
aL37481093L
aL72736545L
aL31661858L
aL92077860L
aL75251493L
aL43188006L
aL15998759L
aL2285352L
aL24305449L
aL85892906L
aL74981164L
aL72761134L
aL66699061L
aL88416054L
aL12484408L
aL79232829L
aL93863742L
aL53884213L
aL77858988L
aL87476875L
aL4382532L
aL41283553L
aL63655431L
aL4931401L
aL38321997L
aL92766032L
aL50855761L
aL1195859L
aL18767700L
aL32333653L
aL1965910L
aL49356631L
aL4472665L
aL16482145L
aL94658402L
aL53804900L
aL39968615L
aL73506665L
aL58842986L
aL8265580L
aL33103727L
aL27268154L
aL18063221L
aL83107702L
aL50102138L
aL41230204L
aL1769341L
aL69931613L
aL21118850L
aL13180907L
aL28811141L
aL97127020L
aL53559179L
aL47105346L
aL10977166L
aL25575312L
aL39403410L
aL74987262L
aL70468483L
aL29622169L
aL97173402L
aL8093595L
aL94426437L
aL12189600L
aL92707484L
aL99694915L
aL73007019L
aL41668594L
aL55189424L
aL59514801L
aL7618489L
aL5103551L
aL24362947L
aL18596946L
aL53133253L
aL47751112L
aL84999849L
aL89939914L
aL82300919L
aL12509133L
aL59654098L
aL41287637L
aL95313880L
aL72318938L
aL91946971L
aL51429343L
aL97334608L
aL74244068L
aL62619622L
aL6938601L
aL83558379L
aL20422638L
aL70483951L
aL59596785L
aL36937714L
aL34846035L
aL23511030L
aL42156028L
aL56762365L
atp2
Rp3
.