c__builtin__
set
p0
((lp1
I1
aI2
aI3
aI4
aI5
aI6
aI9
aI10
aI13
aI14
aI21
aI34
aI40
aI41
aI53
aI54
aI55
aI57
aI58
aI64
aI65
aI67
aI69
aI70
aI71
aI75
aI76
aI77
aI81
aI83
aI84
aI85
aI86
aI87
aI88
aI89
aI91
aI93
aI98
aI99
aI101
aI102
aI103
aI108
aI120
aI121
aI122
aI123
aI124
aI126
aI128
aI129
aI132
aI134
aI139
aI141
aI144
aI147
aI148
aI151
aI161
aI164
aI168
aI170
aI171
aI179
aI180
aI181
aI182
aI183
aI184
aI185
aI186
aI188
aI189
aI191
aI196
aI197
aI198
aI201
aI203
aI205
aI206
aI207
aI208
aI210
aI215
aI217
aI221
aI222
aI223
aI224
aI226
aI227
aI228
aI229
aI230
aI232
aI233
aI237
aI238
aI239
aI240
aI248
aI251
aI254
aI255
aI256
aI258
aI259
aI260
aI262
aI263
aI265
aI266
aI267
aI269
aI270
aI274
aI275
aI276
aI279
aI283
aI286
aI288
aI291
aI292
aI293
aI294
aI295
aI298
aI302
aI303
aI304
aI305
aI306
aI307
aI308
aI309
aI310
aI311
aI313
aI316
aI317
aI319
aI321
aI322
aI325
aI327
aI328
aI334
aI337
aI339
aI340
aI341
aI342
aI343
aI345
aI346
aI348
aI351
aI353
aI355
aI357
aI359
aI360
aI361
aI365
aI366
aI370
aI371
aI373
aI374
aI375
aI376
aI377
aI378
aI379
aI380
aI381
aI382
aI383
aI384
aI386
aI387
aI388
aI395
aI396
aI397
aI398
aI406
aI407
aI408
aI409
aI410
aI411
aI414
aI415
aI419
aI421
aI422
aI423
aI424
aI426
aI427
aI428
aI429
aI430
aI432
aI433
aI434
aI435
aI436
aI438
aI439
aI441
aI442
aI443
aI446
aI448
aI455
aI456
aI458
aI459
aI460
aI463
aI464
aI466
aI467
aI470
aI473
aI475
aI478
aI482
aI484
aI485
aI486
aI487
aI488
aI492
aI493
aI494
aI495
aI499
aI500
aI501
aI502
aI503
aI504
aI506
aI508
aI509
aI511
aI513
aI521
aI522
aI523
aI525
aI526
aI527
aI530
aI531
aI532
aI533
aI534
aI536
aI537
aI538
aI539
aI540
aI541
aI542
aI544
aI545
aI547
aI549
aI550
aI552
aI553
aI556
aI557
aI558
aI560
aI561
aI562
aI566
aI567
aI568
aI569
aI572
aI573
aI574
aI575
aI576
aI577
aI578
aI579
aI580
aI585
aI586
aI588
aI590
aI592
aI593
aI594
aI595
aI597
aI599
aI603
aI604
aI606
aI607
aI608
aI609
aI610
aI611
aI613
aI616
aI617
aI619
aI620
aI621
aI622
aI623
aI624
aI625
aI626
aI633
aI634
aI635
aI641
aI642
aI647
aI648
aI649
aI650
aI651
aI653
aI655
aI658
aI659
aI660
aI662
aI665
aI666
aI667
aI668
aI670
aI671
aI678
aI682
aI683
aI684
aI688
aI692
aI694
aI696
aI698
aI699
aI705
aI706
aI707
aI708
aI709
aI710
aI711
aI712
aI713
aI714
aI715
aI718
aI719
aI723
aI729
aI730
aI731
aI735
aI754
aI761
aI762
aI763
aI767
aI768
aI770
aI771
aI780
aI781
aI782
aI783
aI785
aI786
aI790
aI792
aI794
aI795
aI797
aI798
aI799
aI801
aI802
aI805
aI807
aI808
aI810
aI819
aI820
aI821
aI822
aI823
aI824
aI826
aI832
aI838
aI848
aI849
aI850
aI861
aI864
aI865
aI866
aI868
aI870
aI872
aI874
aI875
aI876
aI877
aI878
aI880
aI881
aI884
aI885
aI889
aI893
aI894
aI895
aI896
aI899
aI900
aI902
aI903
aI904
aI905
aI906
aI910
aI914
aI915
aI921
aI924
aI926
aI927
aI928
aI931
aI932
aI935
aI937
aI939
aI943
aI944
aI945
aI948
aI951
aI953
aI955
aI956
aI958
aI968
aI970
aI971
aI983
aI984
aI986
aI987
aI989
aI995
aI996
aI997
aI1000
aI1002
aI1004
aI1009
aI1010
aI1017
aI1022
aI1024
aI1025
aI1026
aI1027
aI1029
aI1030
aI1033
aI1034
aI1042
aI1044
aI1045
aI1059
aI1061
aI1062
aI1065
aI1069
aI1075
aI1081
aI1082
aI1085
aI1088
aI1089
aI1093
aI1095
aI1098
aI1100
aI1102
aI1103
aI1105
aI1110
aI1114
aI1116
aI1119
aI1121
aI1122
aI1124
aI1125
aI1126
aI1129
aI1134
aI1140
aI1145
aI1146
aI1150
aI1159
aI1160
aI1161
aI1163
aI1165
aI1166
aI1169
aI1170
aI1171
aI1172
aI1174
aI1175
aI1178
aI1179
aI1181
aI1184
aI1187
aI1189
aI1193
aI1197
aI1200
aI1205
aI1214
aI1217
aI1219
aI1223
aI1226
aI1227
aI1228
aI1234
aI1238
aI1242
aI1243
aI1245
aI1246
aI1250
aI1252
aI1254
aI1256
aI1260
aI1262
aI1263
aI1265
aI1267
aI1272
aI1276
aI1282
aI1285
aI1291
aI1299
aI1304
aI1307
aI1310
aI1314
aI1315
aI1317
aI1318
aI1319
aI1342
aI1343
aI1353
aI1359
aI1360
aI1363
aI1371
aI1372
aI1378
aI1379
aI1380
aI1390
aI1391
aI1397
aI1398
aI1399
aI1400
aI1402
aI1403
aI1414
aI1415
aI1416
aI1418
aI1419
aI1420
aI1421
aI1426
aI1427
aI1429
aI1437
aI1438
aI1439
aI1445
aI1456
aI1457
aI1458
aI1461
aI1466
aI1467
aI1469
aI1470
aI1471
aI1475
aI1476
aI1484
aI1485
aI1486
aI1493
aI1494
aI1495
aI1496
aI1500
aI1505
aI1506
aI1509
aI1512
aI1518
aI1528
aI1534
aI1536
aI1539
aI1543
aI1545
aI1546
aI1549
aI1551
aI1552
aI1558
aI1559
aI1561
aI1563
aI1564
aI1565
aI1566
aI1567
aI1574
aI1576
aI1577
aI1579
aI1580
aI1581
aI1582
aI1588
aI1590
aI1591
aI1600
aI1601
aI1602
aI1606
aI1607
aI1608
aI1612
aI1618
aI1621
aI1624
aI1630
aI1631
aI1632
aI1634
aI1635
aI1644
aI1645
aI1649
aI1651
aI1653
aI1656
aI1657
aI1658
aI1659
aI1663
aI1664
aI1668
aI1670
aI1671
aI1672
aI1673
aI1674
aI1681
aI1682
aI1683
aI1687
aI1690
aI1691
aI1692
aI1693
aI1695
aI1702
aI1703
aI1714
aI1715
aI1718
aI1724
aI1725
aI1726
aI1732
aI1733
aI1736
aI1737
aI1738
aI1742
aI1744
aI1745
aI1748
aI1759
aI1761
aI1762
aI1773
aI1779
aI1780
aI1790
aI1791
aI1796
aI1797
aI1798
aI1800
aI1818
aI1820
aI1821
aI1824
aI1829
aI1831
aI1832
aI1837
aI1843
aI1848
aI1855
aI1858
aI1862
aI1864
aI1873
aI1876
aI1878
aI1880
aI1882
aI1886
aI1888
aI1889
aI1890
aI1891
aI1892
aI1895
aI1896
aI1899
aI1903
aI1904
aI1909
aI1918
aI1920
aI1923
aI1924
aI1925
aI1926
aI1936
aI1941
aI1946
aI1947
aI1950
aI1957
aI1962
aI1965
aI1966
aI1968
aI1971
aI1976
aI1977
aI1987
aI1991
aI1996
aI1998
aI1999
aI2001
aI2002
aI2004
aI2007
aI2009
aI2011
aI2012
aI2015
aI2016
aI2022
aI2029
aI2031
aI2046
aI2050
aI2051
aI2052
aI2058
aI2062
aI2068
aI2081
aI2096
aI2097
aI2106
aI2108
aI2111
aI2124
aI2129
aI2131
aI2144
aI2147
aI2153
aI2154
aI2156
aI2157
aI2163
aI2164
aI2170
aI2172
aI2174
aI2175
aI2179
aI2184
aI2185
aI2190
aI2194
aI2195
aI2197
aI2201
aI2205
aI2211
aI2213
aI2220
aI2221
aI2222
aI2225
aI2232
aI2235
aI2240
aI2249
aI2250
aI2256
aI2257
aI2265
aI2271
aI2272
aI2273
aI2275
aI2282
aI2283
aI2286
aI2287
aI2289
aI2292
aI2297
aI2305
aI2306
aI2309
aI2310
aI2319
aI2326
aI2331
aI2343
aI2350
aI2357
aI2369
aI2376
aI2387
aI2389
aI2402
aI2403
aI2412
aI2413
aI2414
aI2416
aI2424
aI2428
aI2430
aI2431
aI2433
aI2442
aI2446
aI2455
aI2457
aI2459
aI2475
aI2481
aI2496
aI2508
aI2510
aI2519
aI2533
aI2539
aI2540
aI2549
aI2558
aI2560
aI2567
aI2572
aI2579
aI2581
aI2583
aI2587
aI2588
aI2606
aI2609
aI2611
aI2615
aI2616
aI2619
aI2621
aI2623
aI2624
aI2627
aI2628
aI2629
aI2630
aI2641
aI2645
aI2648
aI2650
aI2658
aI2662
aI2665
aI2667
aI2669
aI2672
aI2675
aI2683
aI2684
aI2698
aI2703
aI2711
aI2725
aI2732
aI2733
aI2734
aI2749
aI2750
aI2757
aI2770
aI2771
aI2775
aI2778
aI2779
aI2782
aI2786
aI2789
aI2796
aI2805
aI2810
aI2811
aI2816
aI2817
aI2819
aI2830
aI2836
aI2841
aI2843
aI2845
aI2848
aI2849
aI2853
aI2856
aI2866
aI2867
aI2877
aI2878
aI2882
aI2892
aI2893
aI2896
aI2898
aI2908
aI2911
aI2914
aI2920
aI2927
aI2929
aI2939
aI2942
aI2944
aI2945
aI2957
aI2959
aI2960
aI2969
aI2979
aI2984
aI2992
aI2997
aI3005
aI3008
aI3013
aI3018
aI3040
aI3041
aI3042
aI3046
aI3048
aI3061
aI3064
aI3065
aI3066
aI3067
aI3068
aI3069
aI3070
aI3072
aI3073
aI3074
aI3075
aI3077
aI3086
aI3091
aI3093
aI3095
aI3100
aI3102
aI3105
aI3109
aI3114
aI3122
aI3125
aI3127
aI3132
aI3133
aI3135
aI3136
aI3139
aI3140
aI3148
aI3160
aI3163
aI3174
aI3179
aI3180
aI3185
aI3188
aI3202
aI3203
aI3204
aI3205
aI3206
aI3209
aI3212
aI3218
aI3219
aI3220
aI3226
aI3230
aI3234
aI3237
aI3242
aI3246
aI3248
aI3253
aI3254
aI3257
aI3258
aI3259
aI3266
aI3269
aI3272
aI3274
aI3277
aI3284
aI3285
aI3288
aI3290
aI3291
aI3292
aI3297
aI3300
aI3315
aI3320
aI3321
aI3327
aI3332
aI3335
aI3343
aI3348
aI3349
aI3355
aI3360
aI3364
aI3365
aI3369
aI3371
aI3374
aI3379
aI3381
aI3382
aI3383
aI3384
aI3400
aI3403
aI3406
aI3410
aI3412
aI3413
aI3414
aI3415
aI3419
aI3420
aI3421
aI3422
aI3424
aI3426
aI3428
aI3430
aI3431
aI3433
aI3439
aI3442
aI3444
aI3447
aI3448
aI3451
aI3455
aI3456
aI3457
aI3458
aI3465
aI3467
aI3468
aI3470
aI3471
aI3472
aI3475
aI3479
aI3480
aI3488
aI3489
aI3493
aI3494
aI3504
aI3507
aI3511
aI3513
aI3516
aI3519
aI3526
aI3530
aI3552
aI3554
aI3555
aI3561
aI3566
aI3568
aI3569
aI3570
aI3575
aI3577
aI3582
aI3584
aI3585
aI3588
aI3595
aI3597
aI3598
aI3603
aI3608
aI3611
aI3616
aI3618
aI3622
aI3623
aI3624
aI3626
aI3628
aI3630
aI3631
aI3632
aI3638
aI3645
aI3647
aI3654
aI3655
aI3656
aI3657
aI3658
aI3659
aI3661
aI3663
aI3665
aI3668
aI3671
aI3672
aI3677
aI3678
aI3679
aI3681
aI3682
aI3687
aI3689
aI3695
aI3702
aI3704
aI3706
aI3708
aI3709
aI3716
aI3722
aI3724
aI3727
aI3728
aI3729
aI3742
aI3744
aI3748
aI3754
aI3757
aI3760
aI3761
aI3766
aI3768
aI3769
aI3770
aI3773
aI3776
aI3777
aI3778
aI3779
aI3782
aI3785
aI3786
aI3787
aI3789
aI3791
aI3795
aI3796
aI3797
aI3799
aI3801
aI3804
aI3805
aI3806
aI3809
aI3813
aI3814
aI3815
aI3819
aI3822
aI3823
aI3825
aI3830
aI3833
aI3835
aI3836
aI3843
aI3844
aI3847
aI3849
aI3851
aI3853
aI3858
aI3859
aI3864
aI3865
aI3866
aI3867
aI3869
aI3870
aI3877
aI3878
aI3880
aI3883
aI3884
aI3886
aI3887
aI3890
aI3892
aI3893
aI3894
aI3897
aI3901
aI3905
aI3908
aI3914
aI3915
aI3916
aI3917
aI3918
aI3919
aI3920
aI3922
aI3924
aI3925
aI3928
aI3934
aI3938
aI3940
aI3943
aI3944
aI3945
aI3946
aI3950
aI3952
aI3955
aI3957
aI3959
aI3960
aI3962
aI3966
aI3972
aI3975
aI3976
aI3978
aI3980
aI3984
aI3988
aI3992
aI3998
aI4001
aI4003
aI4004
aI4006
aI4007
aI4012
aI4013
aI4014
aI4015
aI4025
aI4031
aI4034
aI4038
aI4040
aI4043
aI4044
aI4046
aI4048
aI4051
aI4052
aI4054
aI4055
aI4056
aI4057
aI4059
aI4060
aI4062
aI4063
aI4064
aI4067
aI4069
aI4070
aI4075
aI4077
aI4081
aI4082
aI4087
aI4089
aI4092
aI4093
aI4099
aI4100
aI4103
aI4109
aI4110
aI4111
aI4112
aI4114
aI4117
aI4119
aI4121
aI4122
aI4123
aI4132
aI4133
aI4135
aI4137
aI4138
aI4139
aI4145
aI4146
aI4147
aI4154
aI4156
aI4158
aI4159
aI4160
aI4163
aI4165
aI4166
aI4167
aI4168
aI4174
aI4175
aI4176
aI4183
aI4187
aI4190
aI4191
aI4193
aI4196
aI4200
aI4201
aI4202
aI4206
aI4210
aI4211
aI4212
aI4214
aI4215
aI4216
aI4217
aI4218
aI4219
aI4221
aI4222
aI4224
aI4229
aI4230
aI4233
aI4240
aI4242
aI4243
aI4245
aI4246
atp2
Rp3
.